; ModuleID = '28/1797.c'
source_filename = "28/1797.c"
target datalayout = "e-m:e-p270:32:32-p271:32:32-p272:64:64-i64:64-f80:128-n8:16:32:64-S128"
target triple = "x86_64-pc-linux-gnu"

@c = common dso_local global [10000 x i8] zeroinitializer, align 16
@.str = private unnamed_addr constant [4 x i8] c"%d,\00", align 1
@.str.1 = private unnamed_addr constant [4 x i8] c"%d\0A\00", align 1

; Function Attrs: noinline nounwind uwtable
define dso_local void @main() #0 {
  %1 = alloca [301 x i8], align 16
  %2 = alloca i32, align 4
  %3 = alloca i32, align 4
  %4 = alloca i32, align 4
  %5 = bitcast [301 x i8]* %1 to i8*
  call void @llvm.memset.p0i8.i64(i8* align 16 %5, i8 0, i64 301, i1 false)
  store i32 0, i32* %2, align 4
  %6 = call i32 (i8*, ...) bitcast (i32 (...)* @gets to i32 (i8*, ...)*)(i8* getelementptr inbounds ([10000 x i8], [10000 x i8]* @c, i64 0, i64 0))
  %7 = call i64 @strlen(i8* getelementptr inbounds ([10000 x i8], [10000 x i8]* @c, i64 0, i64 0)) #4
  %8 = trunc i64 %7 to i32
  store i32 %8, i32* %4, align 4
  store i32 0, i32* %3, align 4
  br label %9

9:                                                ; preds = %59, %0
  %10 = load i32, i32* %3, align 4
  %11 = load i32, i32* %4, align 4
  %12 = sub nsw i32 %11, 1
  %13 = icmp slt i32 %10, %12
  br i1 %13, label %14, label %62

14:                                               ; preds = %9
  %15 = load i32, i32* %3, align 4
  %16 = sext i32 %15 to i64
  %17 = getelementptr inbounds [10000 x i8], [10000 x i8]* @c, i64 0, i64 %16
  %18 = load i8, i8* %17, align 1
  %19 = sext i8 %18 to i32
  %20 = icmp ne i32 %19, 32
  br i1 %20, label %21, label %35

21:                                               ; preds = %14
  %22 = load i32, i32* %3, align 4
  %23 = add nsw i32 %22, 1
  %24 = sext i32 %23 to i64
  %25 = getelementptr inbounds [10000 x i8], [10000 x i8]* @c, i64 0, i64 %24
  %26 = load i8, i8* %25, align 1
  %27 = sext i8 %26 to i32
  %28 = icmp ne i32 %27, 32
  br i1 %28, label %29, label %35

29:                                               ; preds = %21
  %30 = load i32, i32* %2, align 4
  %31 = sext i32 %30 to i64
  %32 = getelementptr inbounds [301 x i8], [301 x i8]* %1, i64 0, i64 %31
  %33 = load i8, i8* %32, align 1
  %34 = add i8 %33, 1
  store i8 %34, i8* %32, align 1
  br label %35

35:                                               ; preds = %29, %21, %14
  %36 = load i32, i32* %3, align 4
  %37 = sext i32 %36 to i64
  %38 = getelementptr inbounds [10000 x i8], [10000 x i8]* @c, i64 0, i64 %37
  %39 = load i8, i8* %38, align 1
  %40 = sext i8 %39 to i32
  %41 = icmp ne i32 %40, 32
  br i1 %41, label %42, label %58

42:                                               ; preds = %35
  %43 = load i32, i32* %3, align 4
  %44 = add nsw i32 %43, 1
  %45 = sext i32 %44 to i64
  %46 = getelementptr inbounds [10000 x i8], [10000 x i8]* @c, i64 0, i64 %45
  %47 = load i8, i8* %46, align 1
  %48 = sext i8 %47 to i32
  %49 = icmp eq i32 %48, 32
  br i1 %49, label %50, label %58

50:                                               ; preds = %42
  %51 = load i32, i32* %2, align 4
  %52 = sext i32 %51 to i64
  %53 = getelementptr inbounds [301 x i8], [301 x i8]* %1, i64 0, i64 %52
  %54 = load i8, i8* %53, align 1
  %55 = add i8 %54, 1
  store i8 %55, i8* %53, align 1
  %56 = load i32, i32* %2, align 4
  %57 = add nsw i32 %56, 1
  store i32 %57, i32* %2, align 4
  br label %58

58:                                               ; preds = %50, %42, %35
  br label %59

59:                                               ; preds = %58
  %60 = load i32, i32* %3, align 4
  %61 = add nsw i32 %60, 1
  store i32 %61, i32* %3, align 4
  br label %9

62:                                               ; preds = %9
  %63 = load i32, i32* %4, align 4
  %64 = sub nsw i32 %63, 1
  %65 = sext i32 %64 to i64
  %66 = getelementptr inbounds [10000 x i8], [10000 x i8]* @c, i64 0, i64 %65
  %67 = load i8, i8* %66, align 1
  %68 = sext i8 %67 to i32
  %69 = icmp ne i32 %68, 32
  br i1 %69, label %70, label %78

70:                                               ; preds = %62
  %71 = load i32, i32* %2, align 4
  %72 = sext i32 %71 to i64
  %73 = getelementptr inbounds [301 x i8], [301 x i8]* %1, i64 0, i64 %72
  %74 = load i8, i8* %73, align 1
  %75 = add i8 %74, 1
  store i8 %75, i8* %73, align 1
  %76 = load i32, i32* %2, align 4
  %77 = add nsw i32 %76, 1
  store i32 %77, i32* %2, align 4
  br label %78

78:                                               ; preds = %70, %62
  store i32 0, i32* %3, align 4
  br label %79

79:                                               ; preds = %91, %78
  %80 = load i32, i32* %3, align 4
  %81 = load i32, i32* %2, align 4
  %82 = sub nsw i32 %81, 1
  %83 = icmp slt i32 %80, %82
  br i1 %83, label %84, label %94

84:                                               ; preds = %79
  %85 = load i32, i32* %3, align 4
  %86 = sext i32 %85 to i64
  %87 = getelementptr inbounds [301 x i8], [301 x i8]* %1, i64 0, i64 %86
  %88 = load i8, i8* %87, align 1
  %89 = sext i8 %88 to i32
  %90 = call i32 (i8*, ...) @printf(i8* getelementptr inbounds ([4 x i8], [4 x i8]* @.str, i64 0, i64 0), i32 %89)
  br label %91

91:                                               ; preds = %84
  %92 = load i32, i32* %3, align 4
  %93 = add nsw i32 %92, 1
  store i32 %93, i32* %3, align 4
  br label %79

94:                                               ; preds = %79
  %95 = load i32, i32* %2, align 4
  %96 = sub nsw i32 %95, 1
  %97 = sext i32 %96 to i64
  %98 = getelementptr inbounds [301 x i8], [301 x i8]* %1, i64 0, i64 %97
  %99 = load i8, i8* %98, align 1
  %100 = sext i8 %99 to i32
  %101 = call i32 (i8*, ...) @printf(i8* getelementptr inbounds ([4 x i8], [4 x i8]* @.str.1, i64 0, i64 0), i32 %100)
  ret void
}

; Function Attrs: argmemonly nounwind willreturn
declare void @llvm.memset.p0i8.i64(i8* nocapture writeonly, i8, i64, i1 immarg) #1

declare dso_local i32 @gets(...) #2

; Function Attrs: nounwind readonly
declare dso_local i64 @strlen(i8*) #3

declare dso_local i32 @printf(i8*, ...) #2


!llvm.module.flags = !{!0}
!llvm.ident = !{!1}

!0 = !{i32 1, !"wchar_size", i32 4}
!1 = !{!"clang version 10.0.0-4ubuntu1 "}
