; ModuleID = 'source-C-CXX/27/1797.c'
source_filename = "source-C-CXX/27/1797.c"
target datalayout = "e-m:e-p270:32:32-p271:32:32-p272:64:64-i64:64-f80:128-n8:16:32:64-S128"
target triple = "x86_64-pc-linux-gnu"

@c = dso_local global [10000 x i8] zeroinitializer, align 16
@.str = private unnamed_addr constant [4 x i8] c"%d,\00", align 1
@.str.1 = private unnamed_addr constant [4 x i8] c"%d\0A\00", align 1

; Function Attrs: nounwind sspstrong uwtable
define dso_local void @main() local_unnamed_addr #0 {
  %1 = alloca [301 x i8], align 16
  %2 = getelementptr inbounds [301 x i8], [301 x i8]* %1, i64 0, i64 0
  call void @llvm.lifetime.start.p0i8(i64 301, i8* nonnull %2) #6
  call void @llvm.memset.p0i8.i64(i8* noundef nonnull align 16 dereferenceable(301) %2, i8 0, i64 301, i1 false)
  %3 = tail call i32 (i8*, ...) bitcast (i32 (...)* @gets to i32 (i8*, ...)*)(i8* getelementptr inbounds ([10000 x i8], [10000 x i8]* @c, i64 0, i64 0)) #6
  %4 = tail call i64 @strlen(i8* noundef nonnull dereferenceable(1) getelementptr inbounds ([10000 x i8], [10000 x i8]* @c, i64 0, i64 0)) #7
  %5 = trunc i64 %4 to i32
  %6 = add i32 %5, -1
  %7 = icmp sgt i32 %5, 1
  br i1 %7, label %8, label %30

8:                                                ; preds = %0
  %9 = zext i32 %6 to i64
  br label %10

10:                                               ; preds = %8, %27
  %11 = phi i64 [ 0, %8 ], [ %16, %27 ]
  %12 = phi i32 [ 0, %8 ], [ %28, %27 ]
  %13 = getelementptr inbounds [10000 x i8], [10000 x i8]* @c, i64 0, i64 %11
  %14 = load i8, i8* %13, align 1, !tbaa !5
  %15 = icmp eq i8 %14, 32
  %16 = add nuw nsw i64 %11, 1
  br i1 %15, label %27, label %17

17:                                               ; preds = %10
  %18 = getelementptr inbounds [10000 x i8], [10000 x i8]* @c, i64 0, i64 %16
  %19 = load i8, i8* %18, align 1, !tbaa !5
  %20 = icmp eq i8 %19, 32
  %21 = sext i32 %12 to i64
  %22 = getelementptr inbounds [301 x i8], [301 x i8]* %1, i64 0, i64 %21
  %23 = load i8, i8* %22, align 1, !tbaa !5
  %24 = add i8 %23, 1
  store i8 %24, i8* %22, align 1, !tbaa !5
  %25 = zext i1 %20 to i32
  %26 = add nsw i32 %12, %25
  br label %27

27:                                               ; preds = %17, %10
  %28 = phi i32 [ %12, %10 ], [ %26, %17 ]
  %29 = icmp eq i64 %16, %9
  br i1 %29, label %30, label %10, !llvm.loop !8

30:                                               ; preds = %27, %0
  %31 = phi i32 [ 0, %0 ], [ %28, %27 ]
  %32 = sext i32 %6 to i64
  %33 = getelementptr inbounds [10000 x i8], [10000 x i8]* @c, i64 0, i64 %32
  %34 = load i8, i8* %33, align 1, !tbaa !5
  %35 = icmp eq i8 %34, 32
  br i1 %35, label %42, label %36

36:                                               ; preds = %30
  %37 = sext i32 %31 to i64
  %38 = getelementptr inbounds [301 x i8], [301 x i8]* %1, i64 0, i64 %37
  %39 = load i8, i8* %38, align 1, !tbaa !5
  %40 = add i8 %39, 1
  store i8 %40, i8* %38, align 1, !tbaa !5
  %41 = add nsw i32 %31, 1
  br label %42

42:                                               ; preds = %36, %30
  %43 = phi i32 [ %41, %36 ], [ %31, %30 ]
  %44 = add i32 %43, -1
  %45 = icmp sgt i32 %43, 1
  br i1 %45, label %46, label %56

46:                                               ; preds = %42
  %47 = zext i32 %44 to i64
  br label %48

48:                                               ; preds = %46, %48
  %49 = phi i64 [ 0, %46 ], [ %54, %48 ]
  %50 = getelementptr inbounds [301 x i8], [301 x i8]* %1, i64 0, i64 %49
  %51 = load i8, i8* %50, align 1, !tbaa !5
  %52 = sext i8 %51 to i32
  %53 = tail call i32 (i8*, ...) @printf(i8* nonnull dereferenceable(1) getelementptr inbounds ([4 x i8], [4 x i8]* @.str, i64 0, i64 0), i32 %52)
  %54 = add nuw nsw i64 %49, 1
  %55 = icmp eq i64 %54, %47
  br i1 %55, label %56, label %48, !llvm.loop !10

56:                                               ; preds = %48, %42
  %57 = sext i32 %44 to i64
  %58 = getelementptr inbounds [301 x i8], [301 x i8]* %1, i64 0, i64 %57
  %59 = load i8, i8* %58, align 1, !tbaa !5
  %60 = sext i8 %59 to i32
  %61 = tail call i32 (i8*, ...) @printf(i8* nonnull dereferenceable(1) getelementptr inbounds ([4 x i8], [4 x i8]* @.str.1, i64 0, i64 0), i32 %60)
  call void @llvm.lifetime.end.p0i8(i64 301, i8* nonnull %2) #6
  ret void
}

; Function Attrs: argmemonly mustprogress nofree nosync nounwind willreturn
declare void @llvm.lifetime.start.p0i8(i64 immarg, i8* nocapture) #1

; Function Attrs: argmemonly mustprogress nofree nounwind willreturn writeonly
declare void @llvm.memset.p0i8.i64(i8* nocapture writeonly, i8, i64, i1 immarg) #2

declare i32 @gets(...) local_unnamed_addr #3

; Function Attrs: argmemonly mustprogress nofree nounwind readonly willreturn
declare i64 @strlen(i8* nocapture) local_unnamed_addr #4

; Function Attrs: nofree nounwind
declare noundef i32 @printf(i8* nocapture noundef readonly, ...) local_unnamed_addr #5

; Function Attrs: argmemonly mustprogress nofree nosync nounwind willreturn
declare void @llvm.lifetime.end.p0i8(i64 immarg, i8* nocapture) #1


!llvm.module.flags = !{!0, !1, !2, !3}
!llvm.ident = !{!4}

!0 = !{i32 1, !"wchar_size", i32 4}
!1 = !{i32 7, !"PIC Level", i32 2}
!2 = !{i32 7, !"PIE Level", i32 2}
!3 = !{i32 7, !"uwtable", i32 1}
!4 = !{!"clang version 13.0.0"}
!5 = !{!6, !6, i64 0}
!6 = !{!"omnipotent char", !7, i64 0}
!7 = !{!"Simple C/C++ TBAA"}
!8 = distinct !{!8, !9}
!9 = !{!"llvm.loop.mustprogress"}
!10 = distinct !{!10, !9}
